target datalayout = "e-m:e-p270:32:32-p271:32:32-p272:64:64-i64:64-i128:128-f80:128-n8:16:32:64-S128"
target triple = "x86_64-pc-linux-gnu"

%struct._asn1_ctx_t = type { i32, i32, i8, ptr, ptr, ptr, ptr, ptr, %struct.anon, %struct.anon.2, %struct.anon.3, ptr }
%struct.anon = type { i32, i8, i8, i8, ptr, ptr, i32, i32, ptr, ptr, ptr, %union.anon }
%union.anon = type { %struct.anon.0 }
%struct.anon.0 = type { ptr }
%struct.anon.2 = type { ptr, ptr, ptr }
%struct.anon.3 = type { i32, i8, ptr, i32, i32, ptr, ptr, ptr, %union.anon.4 }
%union.anon.4 = type { %struct.anon.5 }
%struct.anon.5 = type { ptr }

@hf_lpp_bdsSvHealth_r12_sat_clock = internal global i32 0, align 4
@hf_lpp_bdsSvHealth_r12_b1i = internal global i32 0, align 4
@hf_lpp_bdsSvHealth_r12_b2i = internal global i32 0, align 4
@hf_lpp_bdsSvHealth_r12_nav = internal global i32 0, align 4
@ett_lpp_bdsSvHealth_r12 = internal global i32 0, align 4
@.str.6930 = private unnamed_addr constant [52 x i8] c"Satellite is in failure or permanently shut off (1)\00", align 1
@.str.6931 = private unnamed_addr constant [35 x i8] c"Satellite clock is unavailable (1)\00", align 1

; Function Attrs: null_pointer_is_valid sspstrong uwtable
define internal i32 @dissect_lpp_T_bdsSvHealth_r12(ptr noundef %0, i32 noundef %1, ptr noundef %2, ptr noundef %3, i32 noundef %4) #0 {
  %6 = alloca ptr, align 8
  %7 = alloca i32, align 4
  %8 = alloca ptr, align 8
  %9 = alloca ptr, align 8
  %10 = alloca i32, align 4
  %11 = alloca ptr, align 8
  %12 = alloca ptr, align 8
  %13 = alloca i16, align 2
  store ptr %0, ptr %6, align 8
  store i32 %1, ptr %7, align 4
  store ptr %2, ptr %8, align 8
  store ptr %3, ptr %9, align 8
  store i32 %4, ptr %10, align 4
  call void @llvm.lifetime.start.p0(i64 8, ptr %11) #8
  store ptr null, ptr %11, align 8
  call void @llvm.lifetime.start.p0(i64 8, ptr %12) #8
  %14 = load ptr, ptr %6, align 8
  %15 = load i32, ptr %7, align 4
  %16 = load ptr, ptr %8, align 8
  %17 = load ptr, ptr %9, align 8
  %18 = load i32, ptr %10, align 4
  %19 = call i32 @dissect_per_bit_string(ptr noundef %14, i32 noundef %15, ptr noundef %16, ptr noundef %17, i32 noundef %18, i32 noundef 9, i32 noundef 9, i1 noundef zeroext false, ptr noundef null, i32 noundef 0, ptr noundef %11, ptr noundef null)
  store i32 %19, ptr %7, align 4
  %20 = load ptr, ptr %11, align 8
  %21 = icmp ne ptr %20, null
  br i1 %21, label %22, label %66

22:                                               ; preds = %5
  call void @llvm.lifetime.start.p0(i64 2, ptr %13) #8
  %23 = load ptr, ptr %8, align 8
  %24 = getelementptr inbounds nuw %struct._asn1_ctx_t, ptr %23, i32 0, i32 4
  %25 = load ptr, ptr %24, align 8
  %26 = load i32, ptr @ett_lpp_bdsSvHealth_r12, align 4
  %27 = call ptr @proto_item_add_subtree(ptr noundef %25, i32 noundef %26)
  store ptr %27, ptr %12, align 8
  %28 = load ptr, ptr %11, align 8
  %29 = call zeroext i16 @tvb_get_bits16(ptr noundef %28, i32 noundef 0, i32 noundef 9, i32 noundef 0)
  store i16 %29, ptr %13, align 2
  %30 = load i16, ptr %13, align 2
  %31 = zext i16 %30 to i32
  %32 = icmp eq i32 %31, 511
  br i1 %32, label %33, label %38

33:                                               ; preds = %22
  %34 = load ptr, ptr %12, align 8
  %35 = load i32, ptr @hf_lpp_bdsSvHealth_r12_sat_clock, align 4
  %36 = load ptr, ptr %11, align 8
  %37 = call ptr (ptr, i32, ptr, i32, i32, i64, i32, ptr, ...) @proto_tree_add_boolean_bits_format_value(ptr noundef %34, i32 noundef %35, ptr noundef %36, i32 noundef 0, i32 noundef 1, i64 noundef 1, i32 noundef 0, ptr noundef @.str.6930)
  br label %65

38:                                               ; preds = %22
  %39 = load i16, ptr %13, align 2
  %40 = zext i16 %39 to i32
  %41 = icmp eq i32 %40, 256
  br i1 %41, label %42, label %47

42:                                               ; preds = %38
  %43 = load ptr, ptr %12, align 8
  %44 = load i32, ptr @hf_lpp_bdsSvHealth_r12_sat_clock, align 4
  %45 = load ptr, ptr %11, align 8
  %46 = call ptr (ptr, i32, ptr, i32, i32, i64, i32, ptr, ...) @proto_tree_add_boolean_bits_format_value(ptr noundef %43, i32 noundef %44, ptr noundef %45, i32 noundef 0, i32 noundef 1, i64 noundef 1, i32 noundef 0, ptr noundef @.str.6931)
  br label %64

47:                                               ; preds = %38
  %48 = load ptr, ptr %12, align 8
  %49 = load i32, ptr @hf_lpp_bdsSvHealth_r12_sat_clock, align 4
  %50 = load ptr, ptr %11, align 8
  %51 = call ptr @proto_tree_add_bits_item(ptr noundef %48, i32 noundef %49, ptr noundef %50, i32 noundef 0, i32 noundef 1, i32 noundef 0)
  %52 = load ptr, ptr %12, align 8
  %53 = load i32, ptr @hf_lpp_bdsSvHealth_r12_b1i, align 4
  %54 = load ptr, ptr %11, align 8
  %55 = call ptr @proto_tree_add_bits_item(ptr noundef %52, i32 noundef %53, ptr noundef %54, i32 noundef 1, i32 noundef 1, i32 noundef 0)
  %56 = load ptr, ptr %12, align 8
  %57 = load i32, ptr @hf_lpp_bdsSvHealth_r12_b2i, align 4
  %58 = load ptr, ptr %11, align 8
  %59 = call ptr @proto_tree_add_bits_item(ptr noundef %56, i32 noundef %57, ptr noundef %58, i32 noundef 2, i32 noundef 1, i32 noundef 0)
  %60 = load ptr, ptr %12, align 8
  %61 = load i32, ptr @hf_lpp_bdsSvHealth_r12_nav, align 4
  %62 = load ptr, ptr %11, align 8
  %63 = call ptr @proto_tree_add_bits_item(ptr noundef %60, i32 noundef %61, ptr noundef %62, i32 noundef 7, i32 noundef 1, i32 noundef 0)
  br label %64

64:                                               ; preds = %47, %42
  br label %65

65:                                               ; preds = %64, %33
  call void @llvm.lifetime.end.p0(i64 2, ptr %13) #8
  br label %66

66:                                               ; preds = %65, %5
  %67 = load i32, ptr %7, align 4
  call void @llvm.lifetime.end.p0(i64 8, ptr %12) #8
  call void @llvm.lifetime.end.p0(i64 8, ptr %11) #8
  ret i32 %67
}