; Function Attrs: null_pointer_is_valid sspstrong uwtable
define internal i32 @dissect_lpp_T_bdsSvHealth_r12(ptr noundef %0, i32 noundef %1, ptr noundef %2, ptr noundef %3, i32 noundef %4) #0 {
  %6 = alloca ptr, align 8
  call void @llvm.lifetime.start.p0(i64 8, ptr nonnull %6) #10
  store ptr null, ptr %6, align 8
  %7 = call i32 @dissect_per_bit_string(ptr noundef %0, i32 noundef %1, ptr noundef %2, ptr noundef %3, i32 noundef %4, i32 noundef 9, i32 noundef 9, i1 noundef zeroext false, ptr noundef null, i32 noundef 0, ptr noundef nonnull %6, ptr noundef null)
  %8 = load ptr, ptr %6, align 8
  %.not = icmp eq ptr %8, null
  br i1 %.not, label %33, label %9

9:                                                ; preds = %5
  %10 = getelementptr inbounds nuw i8, ptr %2, i64 24
  %11 = load ptr, ptr %10, align 8
  %12 = load i32, ptr @ett_lpp_bdsSvHealth_r12, align 4
  %13 = call ptr @proto_item_add_subtree(ptr noundef %11, i32 noundef %12)
  %14 = load ptr, ptr %6, align 8
  %15 = call zeroext i16 @tvb_get_bits16(ptr noundef %14, i32 noundef 0, i32 noundef 9, i32 noundef 0)
  %16 = load i32, ptr @hf_lpp_bdsSvHealth_r12_sat_clock, align 4
  %17 = load ptr, ptr %6, align 8
  switch i16 %15, label %22 [
    i16 511, label %18
    i16 256, label %20
  ]

18:                                               ; preds = %9
  %19 = call ptr (ptr, i32, ptr, i32, i32, i64, i32, ptr, ...) @proto_tree_add_boolean_bits_format_value(ptr noundef %13, i32 noundef %16, ptr noundef %17, i32 noundef 0, i32 noundef 1, i64 noundef 1, i32 noundef 0, ptr noundef nonnull @.str.6930)
  br label %33

20:                                               ; preds = %9
  %21 = call ptr (ptr, i32, ptr, i32, i32, i64, i32, ptr, ...) @proto_tree_add_boolean_bits_format_value(ptr noundef %13, i32 noundef %16, ptr noundef %17, i32 noundef 0, i32 noundef 1, i64 noundef 1, i32 noundef 0, ptr noundef nonnull @.str.6931)
  br label %33

22:                                               ; preds = %9
  %23 = call ptr @proto_tree_add_bits_item(ptr noundef %13, i32 noundef %16, ptr noundef %17, i32 noundef 0, i32 noundef 1, i32 noundef 0)
  %24 = load i32, ptr @hf_lpp_bdsSvHealth_r12_b1i, align 4
  %25 = load ptr, ptr %6, align 8
  %26 = call ptr @proto_tree_add_bits_item(ptr noundef %13, i32 noundef %24, ptr noundef %25, i32 noundef 1, i32 noundef 1, i32 noundef 0)
  %27 = load i32, ptr @hf_lpp_bdsSvHealth_r12_b2i, align 4
  %28 = load ptr, ptr %6, align 8
  %29 = call ptr @proto_tree_add_bits_item(ptr noundef %13, i32 noundef %27, ptr noundef %28, i32 noundef 2, i32 noundef 1, i32 noundef 0)
  %30 = load i32, ptr @hf_lpp_bdsSvHealth_r12_nav, align 4
  %31 = load ptr, ptr %6, align 8
  %32 = call ptr @proto_tree_add_bits_item(ptr noundef %13, i32 noundef %30, ptr noundef %31, i32 noundef 7, i32 noundef 1, i32 noundef 0)
  br label %33

33:                                               ; preds = %18, %22, %20, %5
  call void @llvm.lifetime.end.p0(i64 8, ptr nonnull %6) #10
  ret i32 %7
}